target datalayout = "e-m:e-p270:32:32-p271:32:32-p272:64:64-i64:64-i128:128-f80:128-n8:16:32:64-S128"
target triple = "x86_64-pc-linux-gnu"

%struct.sdshdr8 = type { i8, i8, i8, [0 x i8] }
%struct.sdshdr16 = type <{ i16, i16, i8, [0 x i8] }>
%struct.sdshdr32 = type <{ i32, i32, i8, [0 x i8] }>
%struct.sdshdr64 = type <{ i64, i64, i8, [0 x i8] }>
%struct.redisObject = type { i32, i32, ptr }

@.str.1 = private unnamed_addr constant [6 x i8] c"aof.c\00", align 1
@.str.118 = private unnamed_addr constant [24 x i8] c"Unknown string encoding\00", align 1

; Function Attrs: inlinehint nounwind uwtable
define internal i64 @sdslen(ptr noundef %0) #6 {
  %2 = alloca i64, align 8
  %3 = alloca ptr, align 8
  %4 = alloca i8, align 1
  %5 = alloca i32, align 4
  store ptr %0, ptr %3, align 8, !tbaa !18
  call void @llvm.lifetime.start.p0(i64 1, ptr %4) #12
  %6 = load ptr, ptr %3, align 8, !tbaa !18
  %7 = getelementptr inbounds i8, ptr %6, i64 -1
  %8 = load i8, ptr %7, align 1, !tbaa !19
  store i8 %8, ptr %4, align 1, !tbaa !19
  %9 = load i8, ptr %4, align 1, !tbaa !19
  %10 = zext i8 %9 to i32
  %11 = and i32 %10, 7
  switch i32 %11, label %40 [
    i32 0, label %12
    i32 1, label %17
    i32 2, label %23
    i32 3, label %29
    i32 4, label %35
  ]

12:                                               ; preds = %1
  %13 = load i8, ptr %4, align 1, !tbaa !19
  %14 = zext i8 %13 to i32
  %15 = ashr i32 %14, 3
  %16 = sext i32 %15 to i64
  store i64 %16, ptr %2, align 8
  store i32 1, ptr %5, align 4
  br label %41

17:                                               ; preds = %1
  %18 = load ptr, ptr %3, align 8, !tbaa !18
  %19 = getelementptr inbounds i8, ptr %18, i64 -3
  %20 = getelementptr inbounds nuw %struct.sdshdr8, ptr %19, i32 0, i32 0
  %21 = load i8, ptr %20, align 1, !tbaa !19
  %22 = zext i8 %21 to i64
  store i64 %22, ptr %2, align 8
  store i32 1, ptr %5, align 4
  br label %41

23:                                               ; preds = %1
  %24 = load ptr, ptr %3, align 8, !tbaa !18
  %25 = getelementptr inbounds i8, ptr %24, i64 -5
  %26 = getelementptr inbounds nuw %struct.sdshdr16, ptr %25, i32 0, i32 0
  %27 = load i16, ptr %26, align 1, !tbaa !20
  %28 = zext i16 %27 to i64
  store i64 %28, ptr %2, align 8
  store i32 1, ptr %5, align 4
  br label %41

29:                                               ; preds = %1
  %30 = load ptr, ptr %3, align 8, !tbaa !18
  %31 = getelementptr inbounds i8, ptr %30, i64 -9
  %32 = getelementptr inbounds nuw %struct.sdshdr32, ptr %31, i32 0, i32 0
  %33 = load i32, ptr %32, align 1, !tbaa !22
  %34 = zext i32 %33 to i64
  store i64 %34, ptr %2, align 8
  store i32 1, ptr %5, align 4
  br label %41

35:                                               ; preds = %1
  %36 = load ptr, ptr %3, align 8, !tbaa !18
  %37 = getelementptr inbounds i8, ptr %36, i64 -17
  %38 = getelementptr inbounds nuw %struct.sdshdr64, ptr %37, i32 0, i32 0
  %39 = load i64, ptr %38, align 1, !tbaa !23
  store i64 %39, ptr %2, align 8
  store i32 1, ptr %5, align 4
  br label %41

40:                                               ; preds = %1
  store i64 0, ptr %2, align 8
  store i32 1, ptr %5, align 4
  br label %41

41:                                               ; preds = %40, %35, %29, %23, %17, %12
  call void @llvm.lifetime.end.p0(i64 1, ptr %4) #12
  %42 = load i64, ptr %2, align 8
  ret i64 %42
}

; Function Attrs: nounwind uwtable
define dso_local i32 @rioWriteBulkObject(ptr noundef %0, ptr noundef %1) #0 {
  %3 = alloca i32, align 4
  %4 = alloca ptr, align 8
  %5 = alloca ptr, align 8
  store ptr %0, ptr %4, align 8, !tbaa !173
  store ptr %1, ptr %5, align 8, !tbaa !132
  %6 = load ptr, ptr %5, align 8, !tbaa !132
  %7 = load i32, ptr %6, align 8
  %8 = lshr i32 %7, 4
  %9 = and i32 %8, 15
  %10 = icmp eq i32 %9, 1
  br i1 %10, label %11, label %19

11:                                               ; preds = %2
  %12 = load ptr, ptr %4, align 8, !tbaa !173
  %13 = load ptr, ptr %5, align 8, !tbaa !132
  %14 = getelementptr inbounds nuw %struct.redisObject, ptr %13, i32 0, i32 2
  %15 = load ptr, ptr %14, align 8, !tbaa !134
  %16 = ptrtoint ptr %15 to i64
  %17 = call i64 @rioWriteBulkLongLong(ptr noundef %12, i64 noundef %16)
  %18 = trunc i64 %17 to i32
  store i32 %18, ptr %3, align 4
  br label %43

19:                                               ; preds = %2
  %20 = load ptr, ptr %5, align 8, !tbaa !132
  %21 = load i32, ptr %20, align 8
  %22 = lshr i32 %21, 4
  %23 = and i32 %22, 15
  %24 = icmp eq i32 %23, 0
  br i1 %24, label %31, label %25

25:                                               ; preds = %19
  %26 = load ptr, ptr %5, align 8, !tbaa !132
  %27 = load i32, ptr %26, align 8
  %28 = lshr i32 %27, 4
  %29 = and i32 %28, 15
  %30 = icmp eq i32 %29, 8
  br i1 %30, label %31, label %42

31:                                               ; preds = %25, %19
  %32 = load ptr, ptr %4, align 8, !tbaa !173
  %33 = load ptr, ptr %5, align 8, !tbaa !132
  %34 = getelementptr inbounds nuw %struct.redisObject, ptr %33, i32 0, i32 2
  %35 = load ptr, ptr %34, align 8, !tbaa !134
  %36 = load ptr, ptr %5, align 8, !tbaa !132
  %37 = getelementptr inbounds nuw %struct.redisObject, ptr %36, i32 0, i32 2
  %38 = load ptr, ptr %37, align 8, !tbaa !134
  %39 = call i64 @sdslen(ptr noundef %38)
  %40 = call i64 @rioWriteBulkString(ptr noundef %32, ptr noundef %35, i64 noundef %39)
  %41 = trunc i64 %40 to i32
  store i32 %41, ptr %3, align 4
  br label %43

42:                                               ; preds = %25
  call void (ptr, i32, ptr, ...) @_serverPanic(ptr noundef @.str.1, i32 noundef 1872, ptr noundef @.str.118)
  call void @abort() #14
  unreachable

43:                                               ; preds = %31, %11
  %44 = load i32, ptr %3, align 4
  ret i32 %44
}