; Function Attrs: nounwind uwtable
define dso_local i32 @rioWriteBulkObject(ptr noundef %0, ptr noundef readonly captures(none) %1) local_unnamed_addr #0 {
  %3 = load i32, ptr %1, align 8
  %4 = lshr i32 %3, 4
  %5 = and i32 %4, 15
  switch i32 %5, label %37 [
    i32 1, label %6
    i32 0, label %11
    i32 8, label %11
  ]

6:                                                ; preds = %2
  %7 = getelementptr inbounds nuw i8, ptr %1, i64 8
  %8 = load ptr, ptr %7, align 8, !tbaa !118
  %9 = ptrtoint ptr %8 to i64
  %10 = tail call i64 @rioWriteBulkLongLong(ptr noundef %0, i64 noundef %9) #20
  br label %38

11:                                               ; preds = %2, %2
  %12 = getelementptr inbounds nuw i8, ptr %1, i64 8
  %13 = load ptr, ptr %12, align 8, !tbaa !118
  %14 = getelementptr inbounds i8, ptr %13, i64 -1
  %15 = load i8, ptr %14, align 1, !tbaa !18
  %16 = zext i8 %15 to i32
  %17 = and i32 %16, 7
  switch i32 %17, label %sdslen.exit [
    i32 0, label %18
    i32 1, label %21
    i32 2, label %25
    i32 3, label %29
    i32 4, label %33
  ]

18:                                               ; preds = %11
  %19 = lshr i32 %16, 3
  %20 = zext nneg i32 %19 to i64
  br label %sdslen.exit

21:                                               ; preds = %11
  %22 = getelementptr inbounds i8, ptr %13, i64 -3
  %23 = load i8, ptr %22, align 1, !tbaa !18
  %24 = zext i8 %23 to i64
  br label %sdslen.exit

25:                                               ; preds = %11
  %26 = getelementptr inbounds i8, ptr %13, i64 -5
  %27 = load i16, ptr %26, align 1, !tbaa !19
  %28 = zext i16 %27 to i64
  br label %sdslen.exit

29:                                               ; preds = %11
  %30 = getelementptr inbounds i8, ptr %13, i64 -9
  %31 = load i32, ptr %30, align 1, !tbaa !21
  %32 = zext i32 %31 to i64
  br label %sdslen.exit

33:                                               ; preds = %11
  %34 = getelementptr inbounds i8, ptr %13, i64 -17
  %35 = load i64, ptr %34, align 1, !tbaa !22
  br label %sdslen.exit

sdslen.exit:                                      ; preds = %11, %18, %21, %25, %29, %33
  %.0.i = phi i64 [ %35, %33 ], [ %32, %29 ], [ %28, %25 ], [ %24, %21 ], [ %20, %18 ], [ 0, %11 ]
  %36 = tail call i64 @rioWriteBulkString(ptr noundef %0, ptr noundef nonnull %13, i64 noundef %.0.i) #20
  br label %38

37:                                               ; preds = %2
  tail call void (ptr, i32, ptr, ...) @_serverPanic(ptr noundef nonnull @.str.1, i32 noundef 1872, ptr noundef nonnull @.str.118) #20
  tail call void @abort() #21
  unreachable

38:                                               ; preds = %sdslen.exit, %6
  %.0.in = phi i64 [ %10, %6 ], [ %36, %sdslen.exit ]
  %.0 = trunc i64 %.0.in to i32
  ret i32 %.0
}